target datalayout = "e-m:e-p270:32:32-p271:32:32-p272:64:64-i64:64-i128:128-f80:128-n8:16:32:64-S128"
target triple = "x86_64-pc-linux-gnu"

%struct.strvec = type { ptr, i64, i64 }
%struct.add_p_state = type { %struct.add_i_state, %struct.strbuf, %struct.strbuf, %struct.strbuf, %struct.strbuf, ptr, i64, ptr, ptr }
%struct.add_i_state = type { ptr, i32, [75 x i8], [75 x i8], [75 x i8], [75 x i8], [75 x i8], [75 x i8], [75 x i8], [75 x i8], [75 x i8], i32, ptr, ptr }
%struct.strbuf = type { i64, i64, ptr }
%struct.repository = type { ptr, ptr, ptr, ptr, ptr, %struct.strmap, %struct.strmap, %struct.repo_path_cache, ptr, ptr, ptr, ptr, %struct.repo_settings, ptr, ptr, ptr, ptr, ptr, ptr, i32, i32, i32, ptr, ptr, i32, i32, i8 }
%struct.strmap = type { %struct.hashmap, ptr, i8 }
%struct.hashmap = type { ptr, ptr, ptr, i32, i32, i32, i32, i8 }
%struct.repo_path_cache = type { ptr, ptr, ptr, ptr, ptr, ptr, ptr }
%struct.repo_settings = type { i32, i32, i32, i32, i32, i32, i32, i32, i32, i32, i32, i32, ptr, i32, i32, i32, i32, i32, i32, i32, i64, i64, i64 }
%struct.child_process = type { %struct.strvec, %struct.strvec, i32, i32, i64, ptr, ptr, i32, i32, i32, ptr, i16, ptr }
%struct.__va_list_tag = type { i32, i32, ptr, ptr }

@.str.89 = private unnamed_addr constant [18 x i8] c"GIT_INDEX_FILE=%s\00", align 1

; Function Attrs: nounwind uwtable
define internal void @setup_child_process(ptr noundef %0, ptr noundef %1, ...) #0 {
  %3 = alloca ptr, align 8
  %4 = alloca ptr, align 8
  %5 = alloca [1 x %struct.__va_list_tag], align 16
  %6 = alloca ptr, align 8
  store ptr %0, ptr %3, align 8, !tbaa !53
  store ptr %1, ptr %4, align 8, !tbaa !106
  call void @llvm.lifetime.start.p0(i64 24, ptr %5) #10
  call void @llvm.lifetime.start.p0(i64 8, ptr %6) #10
  %7 = getelementptr inbounds [1 x %struct.__va_list_tag], ptr %5, i64 0, i64 0
  call void @llvm.va_start.p0(ptr %7)
  br label %8

8:                                                ; preds = %26, %2
  %9 = getelementptr inbounds [1 x %struct.__va_list_tag], ptr %5, i64 0, i64 0
  %10 = getelementptr inbounds nuw %struct.__va_list_tag, ptr %9, i32 0, i32 0
  %11 = load i32, ptr %10, align 16
  %12 = icmp ule i32 %11, 40
  br i1 %12, label %13, label %18

13:                                               ; preds = %8
  %14 = getelementptr inbounds nuw %struct.__va_list_tag, ptr %9, i32 0, i32 3
  %15 = load ptr, ptr %14, align 16
  %16 = getelementptr i8, ptr %15, i32 %11
  %17 = add i32 %11, 8
  store i32 %17, ptr %10, align 16
  br label %22

18:                                               ; preds = %8
  %19 = getelementptr inbounds nuw %struct.__va_list_tag, ptr %9, i32 0, i32 2
  %20 = load ptr, ptr %19, align 8
  %21 = getelementptr i8, ptr %20, i32 8
  store ptr %21, ptr %19, align 8
  br label %22

22:                                               ; preds = %18, %13
  %23 = phi ptr [ %16, %13 ], [ %20, %18 ]
  %24 = load ptr, ptr %23, align 8, !tbaa !11
  store ptr %24, ptr %6, align 8, !tbaa !11
  %25 = icmp ne ptr %24, null
  br i1 %25, label %26, label %31

26:                                               ; preds = %22
  %27 = load ptr, ptr %4, align 8, !tbaa !106
  %28 = getelementptr inbounds nuw %struct.child_process, ptr %27, i32 0, i32 0
  %29 = load ptr, ptr %6, align 8, !tbaa !11
  %30 = call ptr @strvec_push(ptr noundef %28, ptr noundef %29)
  br label %8, !llvm.loop !108

31:                                               ; preds = %22
  %32 = getelementptr inbounds [1 x %struct.__va_list_tag], ptr %5, i64 0, i64 0
  call void @llvm.va_end.p0(ptr %32)
  %33 = load ptr, ptr %4, align 8, !tbaa !106
  %34 = getelementptr inbounds nuw %struct.child_process, ptr %33, i32 0, i32 11
  %35 = load i16, ptr %34, align 8
  %36 = and i16 %35, -9
  %37 = or i16 %36, 8
  store i16 %37, ptr %34, align 8
  %38 = load ptr, ptr %4, align 8, !tbaa !106
  %39 = getelementptr inbounds nuw %struct.child_process, ptr %38, i32 0, i32 1
  %40 = load ptr, ptr %3, align 8, !tbaa !53
  %41 = getelementptr inbounds nuw %struct.add_p_state, ptr %40, i32 0, i32 0
  %42 = getelementptr inbounds nuw %struct.add_i_state, ptr %41, i32 0, i32 0
  %43 = load ptr, ptr %42, align 8, !tbaa !104
  %44 = getelementptr inbounds nuw %struct.repository, ptr %43, i32 0, i32 9
  %45 = load ptr, ptr %44, align 8, !tbaa !109
  %46 = call ptr (ptr, ptr, ...) @strvec_pushf(ptr noundef %39, ptr noundef @.str.89, ptr noundef %45)
  call void @llvm.lifetime.end.p0(i64 8, ptr %6) #10
  call void @llvm.lifetime.end.p0(i64 24, ptr %5) #10
  ret void
}