; Function Attrs: nounwind uwtable
define internal void @setup_child_process(ptr noundef nonnull readonly captures(none) %0, ptr noundef nonnull %1, ...) unnamed_addr #0 {
  %3 = alloca [1 x %struct.__va_list_tag], align 16
  call void @llvm.lifetime.start.p0(i64 24, ptr nonnull %3) #17
  call void @llvm.va_start.p0(ptr nonnull %3)
  %4 = getelementptr inbounds nuw i8, ptr %3, i64 8
  %5 = getelementptr inbounds nuw i8, ptr %3, i64 16
  br label %6

6:                                                ; preds = %20, %2
  %7 = load i32, ptr %3, align 16
  %8 = icmp ult i32 %7, 41
  br i1 %8, label %9, label %14

9:                                                ; preds = %6
  %10 = load ptr, ptr %5, align 16
  %11 = zext nneg i32 %7 to i64
  %12 = getelementptr i8, ptr %10, i64 %11
  %13 = add nuw nsw i32 %7, 8
  store i32 %13, ptr %3, align 16
  br label %17

14:                                               ; preds = %6
  %15 = load ptr, ptr %4, align 8
  %16 = getelementptr i8, ptr %15, i64 8
  store ptr %16, ptr %4, align 8
  br label %17

17:                                               ; preds = %14, %9
  %18 = phi ptr [ %12, %9 ], [ %15, %14 ]
  %19 = load ptr, ptr %18, align 8, !tbaa !60
  %.not = icmp eq ptr %19, null
  br i1 %.not, label %22, label %20

20:                                               ; preds = %17
  %21 = call ptr @strvec_push(ptr noundef nonnull %1, ptr noundef nonnull %19) #17
  br label %6, !llvm.loop !124

22:                                               ; preds = %17
  call void @llvm.va_end.p0(ptr nonnull %3)
  %23 = getelementptr inbounds nuw i8, ptr %1, i64 104
  %24 = load i16, ptr %23, align 8
  %25 = or i16 %24, 8
  store i16 %25, ptr %23, align 8
  %26 = getelementptr inbounds nuw i8, ptr %1, i64 24
  %27 = load ptr, ptr %0, align 8, !tbaa !118
  %28 = getelementptr inbounds nuw i8, ptr %27, i64 232
  %29 = load ptr, ptr %28, align 8, !tbaa !125
  %30 = call ptr (ptr, ptr, ...) @strvec_pushf(ptr noundef nonnull %26, ptr noundef nonnull @.str.89, ptr noundef %29) #17
  call void @llvm.lifetime.end.p0(i64 24, ptr nonnull %3) #17
  ret void
}